; ModuleID = '58/301.c'
source_filename = "58/301.c"
target datalayout = "e-m:e-p270:32:32-p271:32:32-p272:64:64-i64:64-f80:128-n8:16:32:64-S128"
target triple = "x86_64-pc-linux-gnu"

@.str = private unnamed_addr constant [3 x i8] c"%d\00", align 1
@.str.1 = private unnamed_addr constant [4 x i8] c"%d\0A\00", align 1

; Function Attrs: noinline nounwind uwtable
define dso_local i32 @check(i8* %0) #0 {
  %2 = alloca i32, align 4
  %3 = alloca i8*, align 8
  %4 = alloca i32, align 4
  %5 = alloca i32, align 4
  %6 = alloca i32, align 4
  store i8* %0, i8** %3, align 8
  %7 = load i8*, i8** %3, align 8
  %8 = call i64 @strlen(i8* %7) #3
  %9 = trunc i64 %8 to i32
  store i32 %9, i32* %4, align 4
  store i32 1, i32* %6, align 4
  %10 = load i8*, i8** %3, align 8
  %11 = getelementptr inbounds i8, i8* %10, i64 0
  %12 = load i8, i8* %11, align 1
  %13 = sext i8 %12 to i32
  %14 = icmp sge i32 %13, 97
  br i1 %14, label %15, label %21

15:                                               ; preds = %1
  %16 = load i8*, i8** %3, align 8
  %17 = getelementptr inbounds i8, i8* %16, i64 0
  %18 = load i8, i8* %17, align 1
  %19 = sext i8 %18 to i32
  %20 = icmp sle i32 %19, 122
  br i1 %20, label %27, label %21

21:                                               ; preds = %15, %1
  %22 = load i8*, i8** %3, align 8
  %23 = getelementptr inbounds i8, i8* %22, i64 0
  %24 = load i8, i8* %23, align 1
  %25 = sext i8 %24 to i32
  %26 = icmp eq i32 %25, 95
  br i1 %26, label %27, label %109

27:                                               ; preds = %21, %15
  %28 = load i32, i32* %4, align 4
  %29 = icmp eq i32 %28, 1
  br i1 %29, label %30, label %31

30:                                               ; preds = %27
  store i32 1, i32* %2, align 4
  br label %202

31:                                               ; preds = %27
  store i32 1, i32* %5, align 4
  br label %32

32:                                               ; preds = %105, %31
  %33 = load i32, i32* %5, align 4
  %34 = load i32, i32* %4, align 4
  %35 = icmp slt i32 %33, %34
  br i1 %35, label %36, label %108

36:                                               ; preds = %32
  %37 = load i8*, i8** %3, align 8
  %38 = load i32, i32* %5, align 4
  %39 = sext i32 %38 to i64
  %40 = getelementptr inbounds i8, i8* %37, i64 %39
  %41 = load i8, i8* %40, align 1
  %42 = sext i8 %41 to i32
  %43 = icmp eq i32 %42, 32
  br i1 %43, label %44, label %45

44:                                               ; preds = %36
  store i32 0, i32* %2, align 4
  br label %202

45:                                               ; preds = %36
  %46 = load i8*, i8** %3, align 8
  %47 = load i32, i32* %5, align 4
  %48 = sext i32 %47 to i64
  %49 = getelementptr inbounds i8, i8* %46, i64 %48
  %50 = load i8, i8* %49, align 1
  %51 = sext i8 %50 to i32
  %52 = icmp sge i32 %51, 97
  br i1 %52, label %53, label %61

53:                                               ; preds = %45
  %54 = load i8*, i8** %3, align 8
  %55 = load i32, i32* %5, align 4
  %56 = sext i32 %55 to i64
  %57 = getelementptr inbounds i8, i8* %54, i64 %56
  %58 = load i8, i8* %57, align 1
  %59 = sext i8 %58 to i32
  %60 = icmp sle i32 %59, 122
  br i1 %60, label %101, label %61

61:                                               ; preds = %53, %45
  %62 = load i8*, i8** %3, align 8
  %63 = load i32, i32* %5, align 4
  %64 = sext i32 %63 to i64
  %65 = getelementptr inbounds i8, i8* %62, i64 %64
  %66 = load i8, i8* %65, align 1
  %67 = sext i8 %66 to i32
  %68 = icmp eq i32 %67, 95
  br i1 %68, label %101, label %69

69:                                               ; preds = %61
  %70 = load i8*, i8** %3, align 8
  %71 = load i32, i32* %5, align 4
  %72 = sext i32 %71 to i64
  %73 = getelementptr inbounds i8, i8* %70, i64 %72
  %74 = load i8, i8* %73, align 1
  %75 = sext i8 %74 to i32
  %76 = icmp sge i32 %75, 65
  br i1 %76, label %77, label %85

77:                                               ; preds = %69
  %78 = load i8*, i8** %3, align 8
  %79 = load i32, i32* %5, align 4
  %80 = sext i32 %79 to i64
  %81 = getelementptr inbounds i8, i8* %78, i64 %80
  %82 = load i8, i8* %81, align 1
  %83 = sext i8 %82 to i32
  %84 = icmp sle i32 %83, 90
  br i1 %84, label %101, label %85

85:                                               ; preds = %77, %69
  %86 = load i8*, i8** %3, align 8
  %87 = load i32, i32* %5, align 4
  %88 = sext i32 %87 to i64
  %89 = getelementptr inbounds i8, i8* %86, i64 %88
  %90 = load i8, i8* %89, align 1
  %91 = sext i8 %90 to i32
  %92 = icmp sge i32 %91, 48
  br i1 %92, label %93, label %104

93:                                               ; preds = %85
  %94 = load i8*, i8** %3, align 8
  %95 = load i32, i32* %5, align 4
  %96 = sext i32 %95 to i64
  %97 = getelementptr inbounds i8, i8* %94, i64 %96
  %98 = load i8, i8* %97, align 1
  %99 = sext i8 %98 to i32
  %100 = icmp sle i32 %99, 57
  br i1 %100, label %101, label %104

101:                                              ; preds = %93, %77, %61, %53
  %102 = load i32, i32* %6, align 4
  %103 = add nsw i32 %102, 1
  store i32 %103, i32* %6, align 4
  br label %104

104:                                              ; preds = %101, %93, %85
  br label %105

105:                                              ; preds = %104
  %106 = load i32, i32* %5, align 4
  %107 = add nsw i32 %106, 1
  store i32 %107, i32* %5, align 4
  br label %32

108:                                              ; preds = %32
  br label %196

109:                                              ; preds = %21
  %110 = load i8*, i8** %3, align 8
  %111 = getelementptr inbounds i8, i8* %110, i64 0
  %112 = load i8, i8* %111, align 1
  %113 = sext i8 %112 to i32
  %114 = icmp sge i32 %113, 65
  br i1 %114, label %115, label %194

115:                                              ; preds = %109
  %116 = load i8*, i8** %3, align 8
  %117 = getelementptr inbounds i8, i8* %116, i64 0
  %118 = load i8, i8* %117, align 1
  %119 = sext i8 %118 to i32
  %120 = icmp sle i32 %119, 90
  br i1 %120, label %121, label %194

121:                                              ; preds = %115
  %122 = load i32, i32* %4, align 4
  %123 = icmp eq i32 %122, 1
  br i1 %123, label %124, label %125

124:                                              ; preds = %121
  store i32 1, i32* %2, align 4
  br label %202

125:                                              ; preds = %121
  store i32 1, i32* %5, align 4
  br label %126

126:                                              ; preds = %190, %125
  %127 = load i32, i32* %5, align 4
  %128 = load i32, i32* %4, align 4
  %129 = icmp slt i32 %127, %128
  br i1 %129, label %130, label %193

130:                                              ; preds = %126
  %131 = load i8*, i8** %3, align 8
  %132 = load i32, i32* %5, align 4
  %133 = sext i32 %132 to i64
  %134 = getelementptr inbounds i8, i8* %131, i64 %133
  %135 = load i8, i8* %134, align 1
  %136 = sext i8 %135 to i32
  %137 = icmp sge i32 %136, 97
  br i1 %137, label %138, label %146

138:                                              ; preds = %130
  %139 = load i8*, i8** %3, align 8
  %140 = load i32, i32* %5, align 4
  %141 = sext i32 %140 to i64
  %142 = getelementptr inbounds i8, i8* %139, i64 %141
  %143 = load i8, i8* %142, align 1
  %144 = sext i8 %143 to i32
  %145 = icmp sle i32 %144, 122
  br i1 %145, label %186, label %146

146:                                              ; preds = %138, %130
  %147 = load i8*, i8** %3, align 8
  %148 = load i32, i32* %5, align 4
  %149 = sext i32 %148 to i64
  %150 = getelementptr inbounds i8, i8* %147, i64 %149
  %151 = load i8, i8* %150, align 1
  %152 = sext i8 %151 to i32
  %153 = icmp eq i32 %152, 95
  br i1 %153, label %186, label %154

154:                                              ; preds = %146
  %155 = load i8*, i8** %3, align 8
  %156 = load i32, i32* %5, align 4
  %157 = sext i32 %156 to i64
  %158 = getelementptr inbounds i8, i8* %155, i64 %157
  %159 = load i8, i8* %158, align 1
  %160 = sext i8 %159 to i32
  %161 = icmp sge i32 %160, 65
  br i1 %161, label %162, label %170

162:                                              ; preds = %154
  %163 = load i8*, i8** %3, align 8
  %164 = load i32, i32* %5, align 4
  %165 = sext i32 %164 to i64
  %166 = getelementptr inbounds i8, i8* %163, i64 %165
  %167 = load i8, i8* %166, align 1
  %168 = sext i8 %167 to i32
  %169 = icmp sle i32 %168, 90
  br i1 %169, label %186, label %170

170:                                              ; preds = %162, %154
  %171 = load i8*, i8** %3, align 8
  %172 = load i32, i32* %5, align 4
  %173 = sext i32 %172 to i64
  %174 = getelementptr inbounds i8, i8* %171, i64 %173
  %175 = load i8, i8* %174, align 1
  %176 = sext i8 %175 to i32
  %177 = icmp sge i32 %176, 48
  br i1 %177, label %178, label %189

178:                                              ; preds = %170
  %179 = load i8*, i8** %3, align 8
  %180 = load i32, i32* %5, align 4
  %181 = sext i32 %180 to i64
  %182 = getelementptr inbounds i8, i8* %179, i64 %181
  %183 = load i8, i8* %182, align 1
  %184 = sext i8 %183 to i32
  %185 = icmp sle i32 %184, 57
  br i1 %185, label %186, label %189

186:                                              ; preds = %178, %162, %146, %138
  %187 = load i32, i32* %6, align 4
  %188 = add nsw i32 %187, 1
  store i32 %188, i32* %6, align 4
  br label %189

189:                                              ; preds = %186, %178, %170
  br label %190

190:                                              ; preds = %189
  %191 = load i32, i32* %5, align 4
  %192 = add nsw i32 %191, 1
  store i32 %192, i32* %5, align 4
  br label %126

193:                                              ; preds = %126
  br label %195

194:                                              ; preds = %115, %109
  store i32 0, i32* %2, align 4
  br label %202

195:                                              ; preds = %193
  br label %196

196:                                              ; preds = %195, %108
  %197 = load i32, i32* %6, align 4
  %198 = load i32, i32* %5, align 4
  %199 = icmp eq i32 %197, %198
  br i1 %199, label %200, label %201

200:                                              ; preds = %196
  store i32 1, i32* %2, align 4
  br label %202

201:                                              ; preds = %196
  store i32 0, i32* %2, align 4
  br label %202

202:                                              ; preds = %201, %200, %194, %124, %44, %30
  %203 = load i32, i32* %2, align 4
  ret i32 %203
}

; Function Attrs: nounwind readonly
declare dso_local i64 @strlen(i8*) #1

; Function Attrs: noinline nounwind uwtable
define dso_local i32 @main() #0 {
  %1 = alloca i32, align 4
  %2 = alloca i32, align 4
  %3 = alloca i32, align 4
  %4 = alloca [100 x i8], align 16
  %5 = alloca i32, align 4
  store i32 0, i32* %1, align 4
  %6 = call i32 (i8*, ...) @__isoc99_scanf(i8* getelementptr inbounds ([3 x i8], [3 x i8]* @.str, i64 0, i64 0), i32* %2)
  %7 = getelementptr inbounds [100 x i8], [100 x i8]* %4, i64 0, i64 0
  %8 = call i32 (i8*, ...) bitcast (i32 (...)* @gets to i32 (i8*, ...)*)(i8* %7)
  store i32 0, i32* %3, align 4
  br label %9

9:                                                ; preds = %20, %0
  %10 = load i32, i32* %3, align 4
  %11 = load i32, i32* %2, align 4
  %12 = icmp slt i32 %10, %11
  br i1 %12, label %13, label %23

13:                                               ; preds = %9
  %14 = getelementptr inbounds [100 x i8], [100 x i8]* %4, i64 0, i64 0
  %15 = call i32 (i8*, ...) bitcast (i32 (...)* @gets to i32 (i8*, ...)*)(i8* %14)
  %16 = getelementptr inbounds [100 x i8], [100 x i8]* %4, i64 0, i64 0
  %17 = call i32 @check(i8* %16)
  store i32 %17, i32* %5, align 4
  %18 = load i32, i32* %5, align 4
  %19 = call i32 (i8*, ...) @printf(i8* getelementptr inbounds ([4 x i8], [4 x i8]* @.str.1, i64 0, i64 0), i32 %18)
  br label %20

20:                                               ; preds = %13
  %21 = load i32, i32* %3, align 4
  %22 = add nsw i32 %21, 1
  store i32 %22, i32* %3, align 4
  br label %9

23:                                               ; preds = %9
  %24 = call i32 @getchar()
  %25 = load i32, i32* %1, align 4
  ret i32 %25
}

declare dso_local i32 @__isoc99_scanf(i8*, ...) #2

declare dso_local i32 @gets(...) #2

declare dso_local i32 @printf(i8*, ...) #2

declare dso_local i32 @getchar() #2


!llvm.module.flags = !{!0}
!llvm.ident = !{!1}

!0 = !{i32 1, !"wchar_size", i32 4}
!1 = !{!"clang version 10.0.0-4ubuntu1 "}
